; Function Attrs: mustprogress uwtable
define hidden void @_ZN3smt5setup15setup_QF_AUFLIAEv(ptr nocapture noundef nonnull readonly align 8 dereferenceable(33) %this) local_unnamed_addr #4 align 2 {
entry:
  %m_params = getelementptr inbounds i8, ptr %this, i64 16
  %0 = load ptr, ptr %m_params, align 8
  tail call void @_ZN10smt_params15setup_QF_AUFLIAEv(ptr noundef nonnull align 8 dereferenceable(800) %0)
  %1 = load ptr, ptr %m_params, align 8
  %m_arith_mode.i = getelementptr inbounds i8, ptr %1, i64 252
  %2 = load i32, ptr %m_arith_mode.i, align 4
  %cmp.i = icmp eq i32 %2, 2
  %3 = load ptr, ptr %this, align 8
  br i1 %cmp.i, label %if.then.i, label %_ZN3smt5setup15setup_lra_arithEv.exit.i

if.then.i:                                        ; preds = %entry
  %call.i = tail call noalias noundef ptr @_ZN6memory8allocateEm(i64 noundef 1544)
  %4 = load ptr, ptr %this, align 8
  tail call void @_ZN3smt12theory_arithINS_5i_extEEC1ERNS_7contextE(ptr noundef nonnull align 8 dereferenceable(1544) %call.i, ptr noundef nonnull align 8 dereferenceable(11616) %4)
  br label %_ZN3smt5setup13setup_i_arithEv.exit

_ZN3smt5setup15setup_lra_arithEv.exit.i:          ; preds = %entry
  %call4.i.i = tail call noalias noundef ptr @_ZN6memory8allocateEm(i64 noundef 72)
  %5 = load ptr, ptr %this, align 8
  tail call void @_ZN3smt10theory_lraC1ERNS_7contextE(ptr noundef nonnull align 8 dereferenceable(72) %call4.i.i, ptr noundef nonnull align 8 dereferenceable(11616) %5)
  br label %_ZN3smt5setup13setup_i_arithEv.exit

_ZN3smt5setup13setup_i_arithEv.exit:              ; preds = %if.then.i, %_ZN3smt5setup15setup_lra_arithEv.exit.i
  %call4.i.sink.i = phi ptr [ %call4.i.i, %_ZN3smt5setup15setup_lra_arithEv.exit.i ], [ %call.i, %if.then.i ]
  tail call void @_ZN3smt7context15register_pluginEPNS_6theoryE(ptr noundef nonnull align 8 dereferenceable(11616) %3, ptr noundef nonnull %call4.i.sink.i)
  tail call void @_ZN3smt5setup12setup_arraysEv(ptr noundef nonnull align 8 dereferenceable(33) %this)
  ret void
}